; Function Attrs: nounwind uwtable
define dso_local i32 @acct_storage_p_add_clusters(ptr noundef %0, i32 noundef %1, ptr noundef %2) local_unnamed_addr #0 {
  %4 = alloca %struct.persist_msg_t, align 8
  %5 = alloca %struct.dbd_list_msg_t, align 8
  %6 = alloca i32, align 4
  call void @llvm.lifetime.start.p0(i64 24, ptr nonnull %4) #11
  %7 = getelementptr inbounds nuw i8, ptr %4, i64 16
  store i64 0, ptr %7, align 8
  call void @llvm.lifetime.start.p0(i64 16, ptr nonnull %5) #11
  call void @llvm.lifetime.start.p0(i64 4, ptr nonnull %6) #11
  store i32 0, ptr %6, align 4
  %8 = getelementptr inbounds nuw i8, ptr %5, i64 8
  store i64 0, ptr %8, align 8
  store ptr %2, ptr %5, align 8
  %9 = getelementptr inbounds nuw i8, ptr %4, i64 16
  store i16 1405, ptr %9, align 8
  store ptr %0, ptr %4, align 8
  %10 = getelementptr inbounds nuw i8, ptr %4, i64 8
  store ptr %5, ptr %10, align 8
  %11 = call i32 @dbd_conn_send_recv_rc_msg(i16 noundef zeroext 11008, ptr noundef nonnull %4, ptr noundef nonnull %6) #11
  %12 = load i32, ptr %6, align 4
  %.not = icmp eq i32 %12, 0
  %spec.select = select i1 %.not, i32 %11, i32 %12
  call void @llvm.lifetime.end.p0(i64 4, ptr nonnull %6) #11
  call void @llvm.lifetime.end.p0(i64 16, ptr nonnull %5) #11
  call void @llvm.lifetime.end.p0(i64 24, ptr nonnull %4) #11
  ret i32 %spec.select
}